target datalayout = "e-m:e-p270:32:32-p271:32:32-p272:64:64-i64:64-i128:128-f80:128-n8:16:32:64-S128"
target triple = "x86_64-unknown-linux-gnu"

%class.aiVector3t = type { float, float, float }

; Function Attrs: mustprogress nounwind uwtable
define linkonce_odr hidden noundef float @_ZNK10aiVector3tIfE12SquareLengthEv(ptr noundef nonnull align 4 dereferenceable(12) %this) #0 comdat align 2 {
entry:
  %this.addr = alloca ptr, align 8
  store ptr %this, ptr %this.addr, align 8
  %this1 = load ptr, ptr %this.addr, align 8
  %x = getelementptr inbounds %class.aiVector3t, ptr %this1, i32 0, i32 0
  %0 = load float, ptr %x, align 4
  %x2 = getelementptr inbounds %class.aiVector3t, ptr %this1, i32 0, i32 0
  %1 = load float, ptr %x2, align 4
  %y = getelementptr inbounds %class.aiVector3t, ptr %this1, i32 0, i32 1
  %2 = load float, ptr %y, align 4
  %y3 = getelementptr inbounds %class.aiVector3t, ptr %this1, i32 0, i32 1
  %3 = load float, ptr %y3, align 4
  %mul4 = fmul float %2, %3
  %4 = call float @llvm.fmuladd.f32(float %0, float %1, float %mul4)
  %z = getelementptr inbounds %class.aiVector3t, ptr %this1, i32 0, i32 2
  %5 = load float, ptr %z, align 4
  %z5 = getelementptr inbounds %class.aiVector3t, ptr %this1, i32 0, i32 2
  %6 = load float, ptr %z5, align 4
  %7 = call float @llvm.fmuladd.f32(float %5, float %6, float %4)
  ret float %7
}

; Function Attrs: mustprogress uwtable
define float @aiVector3SquareLength(ptr noundef %v) #5 {
entry:
  %v.addr = alloca ptr, align 8
  store ptr %v, ptr %v.addr, align 8
  %0 = load ptr, ptr %v.addr, align 8
  %call = call noundef float @_ZNK10aiVector3tIfE12SquareLengthEv(ptr noundef nonnull align 4 dereferenceable(12) %0)
  ret float %call
}