; Function Attrs: mustprogress nofree norecurse nosync nounwind willreturn memory(argmem: read) uwtable
define noundef float @aiVector3SquareLength(ptr nocapture noundef readonly %v) local_unnamed_addr #15 {
entry:
  %0 = load float, ptr %v, align 4
  %y.i = getelementptr inbounds i8, ptr %v, i64 4
  %1 = load float, ptr %y.i, align 4
  %mul4.i = fmul float %1, %1
  %2 = tail call float @llvm.fmuladd.f32(float %0, float %0, float %mul4.i)
  %z.i = getelementptr inbounds i8, ptr %v, i64 8
  %3 = load float, ptr %z.i, align 4
  %4 = tail call noundef float @llvm.fmuladd.f32(float %3, float %3, float %2)
  ret float %4
}